(lp0
(S'cppflags'
p1
ccopy_reg
_reconstructor
p2
(cino.utils
SpaceList
p3
c__builtin__
list
p4
(lp5
S'-mmcu=atmega328p'
p6
aS'-DF_CPU=16000000L'
p7
aS'-DARDUINO=105'
p8
aS'-I/Applications/Arduino.app/Contents/Resources/Java/hardware/arduino/cores/arduino'
p9
aS'-ffunction-sections'
p10
aS'-fdata-sections'
p11
aS'-g'
p12
aS'-Os'
p13
aS'-w'
p14
aS'-I/Applications/Arduino.app/Contents/Resources/Java/hardware/arduino/variants/standard'
p15
atp16
Rp17
tp18
a(S'cxx'
p19
S'/Applications/Arduino.app/Contents/Resources/Java/hardware/tools/avr/bin/avr-g++'
p20
tp21
a(S'arduino_libraries_dir'
p22
S'/Applications/Arduino.app/Contents/Resources/Java/libraries'
p23
tp24
a(S'avrdude'
p25
S'/Applications/Arduino.app/Contents/Resources/Java/hardware/tools/avr/bin/avrdude'
p26
tp27
a(S'ar'
p28
S'/Applications/Arduino.app/Contents/Resources/Java/hardware/tools/avr/bin/avr-ar'
p29
tp30
a(S'names'
p31
(dp32
S'cpp'
p33
S'%s.cpp'
p34
sS'obj'
p35
S'%s.o'
p36
sS'deps'
p37
S'%s.d'
p38
sS'lib'
p39
S'lib%s.a'
p40
stp41
a(S'ldflags'
p42
g2
(g3
g4
(lp43
g6
aS'-Wl,-Os'
p44
aS'-Wl,--gc-sections'
p45
atp46
Rp47
tp48
a(S'arduino_lib_version'
p49
g2
(cino.environment
Version
p50
c__builtin__
tuple
p51
(I1
I0
I5
tp52
tp53
Rp54
tp55
a(S'objcopy'
p56
S'/Applications/Arduino.app/Contents/Resources/Java/hardware/tools/avr/bin/avr-objcopy'
p57
tp58
a(S'board_models'
p59
cino.environment
BoardModels
p60
((lp61
(lp62
S'uno'
p63
a(dp64
S'build'
p65
(dp66
S'core'
p67
S'arduino'
p68
sS'mcu'
p69
S'atmega328p'
p70
sS'f_cpu'
p71
S'16000000L'
p72
sS'variant'
p73
S'standard'
p74
ssS'bootloader'
p75
(dp76
S'extended_fuses'
p77
S'0x05'
p78
sS'high_fuses'
p79
S'0xde'
p80
sS'low_fuses'
p81
S'0xff'
p82
sS'lock_bits'
p83
S'0x0F'
p84
sS'file'
p85
S'optiboot_atmega328.hex'
p86
sS'path'
p87
S'optiboot'
p88
sS'unlock_bits'
p89
S'0x3F'
p90
ssS'upload'
p91
(dp92
S'protocol'
p93
S'arduino'
p94
sS'maximum_size'
p95
S'32256'
p96
sS'speed'
p97
S'115200'
p98
ssS'name'
p99
S'Arduino Uno'
p100
saa(lp101
S'atmega328'
p102
a(dp103
S'build'
p104
(dp105
S'core'
p106
S'arduino'
p107
sS'mcu'
p108
S'atmega328p'
p109
sS'f_cpu'
p110
S'16000000L'
p111
sS'variant'
p112
S'standard'
p113
ssS'bootloader'
p114
(dp115
S'extended_fuses'
p116
S'0x05'
p117
sS'high_fuses'
p118
S'0xDA'
p119
sS'low_fuses'
p120
S'0xFF'
p121
sS'lock_bits'
p122
S'0x0F'
p123
sS'file'
p124
S'ATmegaBOOT_168_atmega328.hex'
p125
sS'path'
p126
S'atmega'
p127
sS'unlock_bits'
p128
S'0x3F'
p129
ssS'upload'
p130
(dp131
S'protocol'
p132
S'arduino'
p133
sS'maximum_size'
p134
S'30720'
p135
sS'speed'
p136
S'57600'
p137
ssS'name'
p138
S'Arduino Duemilanove w/ ATmega328'
p139
saa(lp140
S'diecimila'
p141
a(dp142
S'build'
p143
(dp144
S'core'
p145
S'arduino'
p146
sS'mcu'
p147
S'atmega168'
p148
sS'f_cpu'
p149
S'16000000L'
p150
sS'variant'
p151
S'standard'
p152
ssS'bootloader'
p153
(dp154
S'extended_fuses'
p155
S'0x00'
p156
sS'high_fuses'
p157
S'0xdd'
p158
sS'low_fuses'
p159
S'0xff'
p160
sS'lock_bits'
p161
S'0x0F'
p162
sS'file'
p163
S'ATmegaBOOT_168_diecimila.hex'
p164
sS'path'
p165
S'atmega'
p166
sS'unlock_bits'
p167
S'0x3F'
p168
ssS'upload'
p169
(dp170
S'protocol'
p171
S'arduino'
p172
sS'maximum_size'
p173
S'14336'
p174
sS'speed'
p175
S'19200'
p176
ssS'name'
p177
S'Arduino Diecimila or Duemilanove w/ ATmega168'
p178
saa(lp179
S'nano328'
p180
a(dp181
S'build'
p182
(dp183
S'core'
p184
S'arduino'
p185
sS'mcu'
p186
S'atmega328p'
p187
sS'f_cpu'
p188
S'16000000L'
p189
sS'variant'
p190
S'eightanaloginputs'
p191
ssS'bootloader'
p192
(dp193
S'extended_fuses'
p194
S'0x05'
p195
sS'high_fuses'
p196
S'0xDA'
p197
sS'low_fuses'
p198
S'0xFF'
p199
sS'lock_bits'
p200
S'0x0F'
p201
sS'file'
p202
S'ATmegaBOOT_168_atmega328.hex'
p203
sS'path'
p204
S'atmega'
p205
sS'unlock_bits'
p206
S'0x3F'
p207
ssS'upload'
p208
(dp209
S'protocol'
p210
S'arduino'
p211
sS'maximum_size'
p212
S'30720'
p213
sS'speed'
p214
S'57600'
p215
ssS'name'
p216
S'Arduino Nano w/ ATmega328'
p217
saa(lp218
S'nano'
p219
a(dp220
S'build'
p221
(dp222
S'core'
p223
S'arduino'
p224
sS'mcu'
p225
S'atmega168'
p226
sS'f_cpu'
p227
S'16000000L'
p228
sS'variant'
p229
S'eightanaloginputs'
p230
ssS'bootloader'
p231
(dp232
S'extended_fuses'
p233
S'0x00'
p234
sS'high_fuses'
p235
S'0xdd'
p236
sS'low_fuses'
p237
S'0xff'
p238
sS'lock_bits'
p239
S'0x0F'
p240
sS'file'
p241
S'ATmegaBOOT_168_diecimila.hex'
p242
sS'path'
p243
S'atmega'
p244
sS'unlock_bits'
p245
S'0x3F'
p246
ssS'upload'
p247
(dp248
S'protocol'
p249
S'arduino'
p250
sS'maximum_size'
p251
S'14336'
p252
sS'speed'
p253
S'19200'
p254
ssS'name'
p255
S'Arduino Nano w/ ATmega168'
p256
saa(lp257
S'mega2560'
p258
a(dp259
S'build'
p260
(dp261
S'core'
p262
S'arduino'
p263
sS'mcu'
p264
S'atmega2560'
p265
sS'f_cpu'
p266
S'16000000L'
p267
sS'variant'
p268
S'mega'
p269
ssS'bootloader'
p270
(dp271
S'extended_fuses'
p272
S'0xFD'
p273
sS'high_fuses'
p274
S'0xD8'
p275
sS'low_fuses'
p276
S'0xFF'
p277
sS'lock_bits'
p278
S'0x0F'
p279
sS'file'
p280
S'stk500boot_v2_mega2560.hex'
p281
sS'path'
p282
S'stk500v2'
p283
sS'unlock_bits'
p284
S'0x3F'
p285
ssS'upload'
p286
(dp287
S'protocol'
p288
S'wiring'
p289
sS'maximum_size'
p290
S'258048'
p291
sS'speed'
p292
S'115200'
p293
ssS'name'
p294
S'Arduino Mega 2560 or Mega ADK'
p295
saa(lp296
S'mega'
p297
a(dp298
S'build'
p299
(dp300
S'core'
p301
S'arduino'
p302
sS'mcu'
p303
S'atmega1280'
p304
sS'f_cpu'
p305
S'16000000L'
p306
sS'variant'
p307
S'mega'
p308
ssS'bootloader'
p309
(dp310
S'extended_fuses'
p311
S'0xF5'
p312
sS'high_fuses'
p313
S'0xDA'
p314
sS'low_fuses'
p315
S'0xFF'
p316
sS'lock_bits'
p317
S'0x0F'
p318
sS'file'
p319
S'ATmegaBOOT_168_atmega1280.hex'
p320
sS'path'
p321
S'atmega'
p322
sS'unlock_bits'
p323
S'0x3F'
p324
ssS'upload'
p325
(dp326
S'protocol'
p327
S'arduino'
p328
sS'maximum_size'
p329
S'126976'
p330
sS'speed'
p331
S'57600'
p332
ssS'name'
p333
S'Arduino Mega (ATmega1280)'
p334
saa(lp335
S'leonardo'
p336
a(dp337
S'build'
p338
(dp339
S'core'
p340
S'arduino'
p341
sS'f_cpu'
p342
S'16000000L'
p343
sS'vid'
p344
S'0x2341'
p345
sS'pid'
p346
S'0x8036'
p347
sS'variant'
p348
S'leonardo'
p349
sS'mcu'
p350
S'atmega32u4'
p351
ssS'bootloader'
p352
(dp353
S'extended_fuses'
p354
S'0xcb'
p355
sS'high_fuses'
p356
S'0xd8'
p357
sS'low_fuses'
p358
S'0xff'
p359
sS'lock_bits'
p360
S'0x2F'
p361
sS'file'
p362
S'Caterina-Leonardo.hex'
p363
sS'path'
p364
S'caterina'
p365
sS'unlock_bits'
p366
S'0x3F'
p367
ssS'upload'
p368
(dp369
S'protocol'
p370
S'avr109'
p371
sS'maximum_size'
p372
S'28672'
p373
sS'speed'
p374
S'57600'
p375
sS'disable_flushing'
p376
S'true'
p377
ssS'name'
p378
S'Arduino Leonardo'
p379
saa(lp380
S'esplora'
p381
a(dp382
S'build'
p383
(dp384
S'core'
p385
S'arduino'
p386
sS'f_cpu'
p387
S'16000000L'
p388
sS'vid'
p389
S'0x2341'
p390
sS'pid'
p391
S'0x803C'
p392
sS'variant'
p393
S'leonardo'
p394
sS'mcu'
p395
S'atmega32u4'
p396
ssS'bootloader'
p397
(dp398
S'extended_fuses'
p399
S'0xcb'
p400
sS'high_fuses'
p401
S'0xd8'
p402
sS'low_fuses'
p403
S'0xff'
p404
sS'lock_bits'
p405
S'0x2F'
p406
sS'file'
p407
S'Caterina-Esplora.hex'
p408
sS'path'
p409
S'caterina'
p410
sS'unlock_bits'
p411
S'0x3F'
p412
ssS'upload'
p413
(dp414
S'protocol'
p415
S'avr109'
p416
sS'maximum_size'
p417
S'28672'
p418
sS'speed'
p419
S'57600'
p420
sS'disable_flushing'
p421
S'true'
p422
ssS'name'
p423
S'Arduino Esplora'
p424
saa(lp425
S'micro'
p426
a(dp427
S'build'
p428
(dp429
S'core'
p430
S'arduino'
p431
sS'f_cpu'
p432
S'16000000L'
p433
sS'vid'
p434
S'0x2341'
p435
sS'pid'
p436
S'0x8037'
p437
sS'variant'
p438
S'micro'
p439
sS'mcu'
p440
S'atmega32u4'
p441
ssS'bootloader'
p442
(dp443
S'extended_fuses'
p444
S'0xcb'
p445
sS'high_fuses'
p446
S'0xd8'
p447
sS'low_fuses'
p448
S'0xff'
p449
sS'lock_bits'
p450
S'0x2F'
p451
sS'file'
p452
S'Caterina-Micro.hex'
p453
sS'path'
p454
S'caterina'
p455
sS'unlock_bits'
p456
S'0x3F'
p457
ssS'upload'
p458
(dp459
S'protocol'
p460
S'avr109'
p461
sS'maximum_size'
p462
S'28672'
p463
sS'speed'
p464
S'57600'
p465
sS'disable_flushing'
p466
S'true'
p467
ssS'name'
p468
S'Arduino Micro'
p469
saa(lp470
S'mini328'
p471
a(dp472
S'build'
p473
(dp474
S'core'
p475
S'arduino'
p476
sS'mcu'
p477
S'atmega328p'
p478
sS'f_cpu'
p479
S'16000000L'
p480
sS'variant'
p481
S'eightanaloginputs'
p482
ssS'bootloader'
p483
(dp484
S'extended_fuses'
p485
S'0x05'
p486
sS'high_fuses'
p487
S'0xd8'
p488
sS'low_fuses'
p489
S'0xff'
p490
sS'lock_bits'
p491
S'0x0F'
p492
sS'file'
p493
S'optiboot_atmega328-Mini.hex'
p494
sS'path'
p495
S'optiboot'
p496
sS'unlock_bits'
p497
S'0x3F'
p498
ssS'upload'
p499
(dp500
S'protocol'
p501
S'arduino'
p502
sS'maximum_size'
p503
S'28672'
p504
sS'speed'
p505
S'115200'
p506
ssS'name'
p507
S'Arduino Mini w/ ATmega328'
p508
saa(lp509
S'mini'
p510
a(dp511
S'build'
p512
(dp513
S'core'
p514
S'arduino'
p515
sS'mcu'
p516
S'atmega168'
p517
sS'f_cpu'
p518
S'16000000L'
p519
sS'variant'
p520
S'eightanaloginputs'
p521
ssS'bootloader'
p522
(dp523
S'extended_fuses'
p524
S'0x00'
p525
sS'high_fuses'
p526
S'0xdd'
p527
sS'low_fuses'
p528
S'0xff'
p529
sS'lock_bits'
p530
S'0x0F'
p531
sS'file'
p532
S'ATmegaBOOT_168_ng.hex'
p533
sS'path'
p534
S'atmega'
p535
sS'unlock_bits'
p536
S'0x3F'
p537
ssS'upload'
p538
(dp539
S'protocol'
p540
S'arduino'
p541
sS'maximum_size'
p542
S'14336'
p543
sS'speed'
p544
S'19200'
p545
ssS'name'
p546
S'Arduino Mini w/ ATmega168'
p547
saa(lp548
S'ethernet'
p549
a(dp550
S'build'
p551
(dp552
S'variant'
p553
S'standard'
p554
sS'mcu'
p555
S'atmega328p'
p556
sS'f_cpu'
p557
S'16000000L'
p558
sS'core'
p559
S'arduino'
p560
ssS'bootloader'
p561
(dp562
S'extended_fuses'
p563
S'0x05'
p564
sS'high_fuses'
p565
S'0xde'
p566
sS'low_fuses'
p567
S'0xff'
p568
sS'lock_bits'
p569
S'0x0F'
p570
sS'file'
p571
S'optiboot_atmega328.hex'
p572
sS'path'
p573
S'optiboot'
p574
sS'unlock_bits'
p575
S'0x3F'
p576
ssS'upload'
p577
(dp578
S'protocol'
p579
S'arduino'
p580
sS'maximum_size'
p581
S'32256'
p582
sS'speed'
p583
S'115200'
p584
ssS'name'
p585
S'Arduino Ethernet'
p586
saa(lp587
S'fio'
p588
a(dp589
S'build'
p590
(dp591
S'core'
p592
S'arduino'
p593
sS'mcu'
p594
S'atmega328p'
p595
sS'f_cpu'
p596
S'8000000L'
p597
sS'variant'
p598
S'eightanaloginputs'
p599
ssS'bootloader'
p600
(dp601
S'extended_fuses'
p602
S'0x05'
p603
sS'high_fuses'
p604
S'0xDA'
p605
sS'low_fuses'
p606
S'0xFF'
p607
sS'lock_bits'
p608
S'0x0F'
p609
sS'file'
p610
S'ATmegaBOOT_168_atmega328_pro_8MHz.hex'
p611
sS'path'
p612
S'arduino:atmega'
p613
sS'unlock_bits'
p614
S'0x3F'
p615
ssS'upload'
p616
(dp617
S'protocol'
p618
S'arduino'
p619
sS'maximum_size'
p620
S'30720'
p621
sS'speed'
p622
S'57600'
p623
ssS'name'
p624
S'Arduino Fio'
p625
saa(lp626
S'bt328'
p627
a(dp628
S'build'
p629
(dp630
S'core'
p631
S'arduino'
p632
sS'mcu'
p633
S'atmega328p'
p634
sS'f_cpu'
p635
S'16000000L'
p636
sS'variant'
p637
S'eightanaloginputs'
p638
ssS'bootloader'
p639
(dp640
S'extended_fuses'
p641
S'0x05'
p642
sS'high_fuses'
p643
S'0xd8'
p644
sS'low_fuses'
p645
S'0xff'
p646
sS'lock_bits'
p647
S'0x0F'
p648
sS'file'
p649
S'ATmegaBOOT_168_atmega328_bt.hex'
p650
sS'path'
p651
S'bt'
p652
sS'unlock_bits'
p653
S'0x3F'
p654
ssS'upload'
p655
(dp656
S'protocol'
p657
S'arduino'
p658
sS'maximum_size'
p659
S'28672'
p660
sS'speed'
p661
S'19200'
p662
sS'disable_flushing'
p663
S'true'
p664
ssS'name'
p665
S'Arduino BT w/ ATmega328'
p666
saa(lp667
S'bt'
p668
a(dp669
S'build'
p670
(dp671
S'core'
p672
S'arduino'
p673
sS'mcu'
p674
S'atmega168'
p675
sS'f_cpu'
p676
S'16000000L'
p677
sS'variant'
p678
S'eightanaloginputs'
p679
ssS'bootloader'
p680
(dp681
S'extended_fuses'
p682
S'0x00'
p683
sS'high_fuses'
p684
S'0xdd'
p685
sS'low_fuses'
p686
S'0xff'
p687
sS'lock_bits'
p688
S'0x0F'
p689
sS'file'
p690
S'ATmegaBOOT_168.hex'
p691
sS'path'
p692
S'bt'
p693
sS'unlock_bits'
p694
S'0x3F'
p695
ssS'upload'
p696
(dp697
S'protocol'
p698
S'arduino'
p699
sS'maximum_size'
p700
S'14336'
p701
sS'speed'
p702
S'19200'
p703
sS'disable_flushing'
p704
S'true'
p705
ssS'name'
p706
S'Arduino BT w/ ATmega168'
p707
saa(lp708
S'LilyPadUSB'
p709
a(dp710
S'build'
p711
(dp712
S'core'
p713
S'arduino'
p714
sS'f_cpu'
p715
S'8000000L'
p716
sS'vid'
p717
S'0x1B4F'
p718
sS'pid'
p719
S'0x9208'
p720
sS'variant'
p721
S'leonardo'
p722
sS'mcu'
p723
S'atmega32u4'
p724
ssS'bootloader'
p725
(dp726
S'extended_fuses'
p727
S'0xce'
p728
sS'high_fuses'
p729
S'0xd8'
p730
sS'low_fuses'
p731
S'0xff'
p732
sS'lock_bits'
p733
S'0x2F'
p734
sS'file'
p735
S'Caterina-LilyPadUSB.hex'
p736
sS'path'
p737
S'caterina-LilyPadUSB'
p738
sS'unlock_bits'
p739
S'0x3F'
p740
ssS'upload'
p741
(dp742
S'protocol'
p743
S'avr109'
p744
sS'maximum_size'
p745
S'28672'
p746
sS'speed'
p747
S'57600'
p748
sS'disable_flushing'
p749
S'true'
p750
ssS'name'
p751
S'LilyPad Arduino USB'
p752
saa(lp753
S'lilypad328'
p754
a(dp755
S'build'
p756
(dp757
S'core'
p758
S'arduino'
p759
sS'mcu'
p760
S'atmega328p'
p761
sS'f_cpu'
p762
S'8000000L'
p763
sS'variant'
p764
S'standard'
p765
ssS'bootloader'
p766
(dp767
S'extended_fuses'
p768
S'0x05'
p769
sS'high_fuses'
p770
S'0xDA'
p771
sS'low_fuses'
p772
S'0xFF'
p773
sS'lock_bits'
p774
S'0x0F'
p775
sS'file'
p776
S'ATmegaBOOT_168_atmega328_pro_8MHz.hex'
p777
sS'path'
p778
S'atmega'
p779
sS'unlock_bits'
p780
S'0x3F'
p781
ssS'upload'
p782
(dp783
S'protocol'
p784
S'arduino'
p785
sS'maximum_size'
p786
S'30720'
p787
sS'speed'
p788
S'57600'
p789
ssS'name'
p790
S'LilyPad Arduino w/ ATmega328'
p791
saa(lp792
S'lilypad'
p793
a(dp794
S'build'
p795
(dp796
S'core'
p797
S'arduino'
p798
sS'mcu'
p799
S'atmega168'
p800
sS'f_cpu'
p801
S'8000000L'
p802
sS'variant'
p803
S'standard'
p804
ssS'bootloader'
p805
(dp806
S'extended_fuses'
p807
S'0x00'
p808
sS'high_fuses'
p809
S'0xdd'
p810
sS'low_fuses'
p811
S'0xe2'
p812
sS'lock_bits'
p813
S'0x0F'
p814
sS'file'
p815
S'LilyPadBOOT_168.hex'
p816
sS'path'
p817
S'lilypad'
p818
sS'unlock_bits'
p819
S'0x3F'
p820
ssS'upload'
p821
(dp822
S'protocol'
p823
S'arduino'
p824
sS'maximum_size'
p825
S'14336'
p826
sS'speed'
p827
S'19200'
p828
ssS'name'
p829
S'LilyPad Arduino w/ ATmega168'
p830
saa(lp831
S'pro5v328'
p832
a(dp833
S'build'
p834
(dp835
S'core'
p836
S'arduino'
p837
sS'mcu'
p838
S'atmega328p'
p839
sS'f_cpu'
p840
S'16000000L'
p841
sS'variant'
p842
S'standard'
p843
ssS'bootloader'
p844
(dp845
S'extended_fuses'
p846
S'0x05'
p847
sS'high_fuses'
p848
S'0xDA'
p849
sS'low_fuses'
p850
S'0xFF'
p851
sS'lock_bits'
p852
S'0x0F'
p853
sS'file'
p854
S'ATmegaBOOT_168_atmega328.hex'
p855
sS'path'
p856
S'atmega'
p857
sS'unlock_bits'
p858
S'0x3F'
p859
ssS'upload'
p860
(dp861
S'protocol'
p862
S'arduino'
p863
sS'maximum_size'
p864
S'30720'
p865
sS'speed'
p866
S'57600'
p867
ssS'name'
p868
S'Arduino Pro or Pro Mini (5V, 16 MHz) w/ ATmega328'
p869
saa(lp870
S'pro5v'
p871
a(dp872
S'build'
p873
(dp874
S'core'
p875
S'arduino'
p876
sS'mcu'
p877
S'atmega168'
p878
sS'f_cpu'
p879
S'16000000L'
p880
sS'variant'
p881
S'standard'
p882
ssS'bootloader'
p883
(dp884
S'extended_fuses'
p885
S'0x00'
p886
sS'high_fuses'
p887
S'0xdd'
p888
sS'low_fuses'
p889
S'0xff'
p890
sS'lock_bits'
p891
S'0x0F'
p892
sS'file'
p893
S'ATmegaBOOT_168_diecimila.hex'
p894
sS'path'
p895
S'atmega'
p896
sS'unlock_bits'
p897
S'0x3F'
p898
ssS'upload'
p899
(dp900
S'protocol'
p901
S'arduino'
p902
sS'maximum_size'
p903
S'14336'
p904
sS'speed'
p905
S'19200'
p906
ssS'name'
p907
S'Arduino Pro or Pro Mini (5V, 16 MHz) w/ ATmega168'
p908
saa(lp909
S'pro328'
p910
a(dp911
S'build'
p912
(dp913
S'core'
p914
S'arduino'
p915
sS'mcu'
p916
S'atmega328p'
p917
sS'f_cpu'
p918
S'8000000L'
p919
sS'variant'
p920
S'standard'
p921
ssS'bootloader'
p922
(dp923
S'extended_fuses'
p924
S'0x05'
p925
sS'high_fuses'
p926
S'0xDA'
p927
sS'low_fuses'
p928
S'0xFF'
p929
sS'lock_bits'
p930
S'0x0F'
p931
sS'file'
p932
S'ATmegaBOOT_168_atmega328_pro_8MHz.hex'
p933
sS'path'
p934
S'atmega'
p935
sS'unlock_bits'
p936
S'0x3F'
p937
ssS'upload'
p938
(dp939
S'protocol'
p940
S'arduino'
p941
sS'maximum_size'
p942
S'30720'
p943
sS'speed'
p944
S'57600'
p945
ssS'name'
p946
S'Arduino Pro or Pro Mini (3.3V, 8 MHz) w/ ATmega328'
p947
saa(lp948
S'pro'
p949
a(dp950
S'build'
p951
(dp952
S'core'
p953
S'arduino'
p954
sS'mcu'
p955
S'atmega168'
p956
sS'f_cpu'
p957
S'8000000L'
p958
sS'variant'
p959
S'standard'
p960
ssS'bootloader'
p961
(dp962
S'extended_fuses'
p963
S'0x00'
p964
sS'high_fuses'
p965
S'0xdd'
p966
sS'low_fuses'
p967
S'0xc6'
p968
sS'lock_bits'
p969
S'0x0F'
p970
sS'file'
p971
S'ATmegaBOOT_168_pro_8MHz.hex'
p972
sS'path'
p973
S'atmega'
p974
sS'unlock_bits'
p975
S'0x3F'
p976
ssS'upload'
p977
(dp978
S'protocol'
p979
S'arduino'
p980
sS'maximum_size'
p981
S'14336'
p982
sS'speed'
p983
S'19200'
p984
ssS'name'
p985
S'Arduino Pro or Pro Mini (3.3V, 8 MHz) w/ ATmega168'
p986
saa(lp987
S'atmega168'
p988
a(dp989
S'build'
p990
(dp991
S'core'
p992
S'arduino'
p993
sS'mcu'
p994
S'atmega168'
p995
sS'f_cpu'
p996
S'16000000L'
p997
sS'variant'
p998
S'standard'
p999
ssS'bootloader'
p1000
(dp1001
S'extended_fuses'
p1002
S'0x00'
p1003
sS'high_fuses'
p1004
S'0xdd'
p1005
sS'low_fuses'
p1006
S'0xff'
p1007
sS'lock_bits'
p1008
S'0x0F'
p1009
sS'file'
p1010
S'ATmegaBOOT_168_ng.hex'
p1011
sS'path'
p1012
S'atmega'
p1013
sS'unlock_bits'
p1014
S'0x3F'
p1015
ssS'upload'
p1016
(dp1017
S'protocol'
p1018
S'arduino'
p1019
sS'maximum_size'
p1020
S'14336'
p1021
sS'speed'
p1022
S'19200'
p1023
ssS'name'
p1024
S'Arduino NG or older w/ ATmega168'
p1025
saa(lp1026
S'atmega8'
p1027
a(dp1028
S'build'
p1029
(dp1030
S'core'
p1031
S'arduino'
p1032
sS'mcu'
p1033
S'atmega8'
p1034
sS'f_cpu'
p1035
S'16000000L'
p1036
sS'variant'
p1037
S'standard'
p1038
ssS'bootloader'
p1039
(dp1040
S'high_fuses'
p1041
S'0xca'
p1042
sS'low_fuses'
p1043
S'0xdf'
p1044
sS'lock_bits'
p1045
S'0x0F'
p1046
sS'file'
p1047
S'ATmegaBOOT-prod-firmware-2009-11-07.hex'
p1048
sS'path'
p1049
S'atmega8'
p1050
sS'unlock_bits'
p1051
S'0x3F'
p1052
ssS'upload'
p1053
(dp1054
S'protocol'
p1055
S'arduino'
p1056
sS'maximum_size'
p1057
S'7168'
p1058
sS'speed'
p1059
S'19200'
p1060
ssS'name'
p1061
S'Arduino NG or older w/ ATmega8'
p1062
saa(lp1063
S'robotControl'
p1064
a(dp1065
S'build'
p1066
(dp1067
S'core'
p1068
S'robot'
p1069
sS'f_cpu'
p1070
S'16000000L'
p1071
sS'vid'
p1072
S'0x2341'
p1073
sS'pid'
p1074
S'0x8038'
p1075
sS'variant'
p1076
S'robot_control'
p1077
sS'mcu'
p1078
S'atmega32u4'
p1079
ssS'bootloader'
p1080
(dp1081
S'extended_fuses'
p1082
S'0xcb'
p1083
sS'high_fuses'
p1084
S'0xd8'
p1085
sS'low_fuses'
p1086
S'0xff'
p1087
sS'lock_bits'
p1088
S'0x2F'
p1089
sS'file'
p1090
S'Caterina-Robot-Control.hex'
p1091
sS'path'
p1092
S'caterina-Arduino_Robot'
p1093
sS'unlock_bits'
p1094
S'0x3F'
p1095
ssS'upload'
p1096
(dp1097
S'protocol'
p1098
S'avr109'
p1099
sS'maximum_size'
p1100
S'28672'
p1101
sS'speed'
p1102
S'57600'
p1103
sS'disable_flushing'
p1104
S'true'
p1105
ssS'name'
p1106
S'Arduino Robot Control'
p1107
saa(lp1108
S'robotMotor'
p1109
a(dp1110
S'build'
p1111
(dp1112
S'core'
p1113
S'robot'
p1114
sS'f_cpu'
p1115
S'16000000L'
p1116
sS'vid'
p1117
S'0x2341'
p1118
sS'pid'
p1119
S'0x8039'
p1120
sS'variant'
p1121
S'robot_motor'
p1122
sS'mcu'
p1123
S'atmega32u4'
p1124
ssS'bootloader'
p1125
(dp1126
S'extended_fuses'
p1127
S'0xcb'
p1128
sS'high_fuses'
p1129
S'0xd8'
p1130
sS'low_fuses'
p1131
S'0xff'
p1132
sS'lock_bits'
p1133
S'0x2F'
p1134
sS'file'
p1135
S'Caterina-Robot-Motor.hex'
p1136
sS'path'
p1137
S'caterina-Arduino_Robot'
p1138
sS'unlock_bits'
p1139
S'0x3F'
p1140
ssS'upload'
p1141
(dp1142
S'protocol'
p1143
S'avr109'
p1144
sS'maximum_size'
p1145
S'28672'
p1146
sS'speed'
p1147
S'57600'
p1148
sS'disable_flushing'
p1149
S'true'
p1150
ssS'name'
p1151
S'Arduino Robot Motor'
p1152
saatp1153
Rp1154
(dp1155
S'default'
p1156
S'uno'
p1157
sbtp1158
a(S'used_libs'
p1159
(lp1160
S'/Applications/Arduino.app/Contents/Resources/Java/libraries/Wire'
p1161
aS'/Applications/Arduino.app/Contents/Resources/Java/hardware/arduino/cores/arduino'
p1162
atp1163
a(S'make'
p1164
S'/Applications/Arduino.app/Contents/Resources/Java/hardware/tools/avr/bin/make'
p1165
tp1166
a(S'build_dir'
p1167
S'.build/uno'
p1168
tp1169
a(S'cc'
p1170
S'/Applications/Arduino.app/Contents/Resources/Java/hardware/tools/avr/bin/avr-gcc'
p1171
tp1172
a(S'cflags'
p1173
g2
(g3
g4
(lp1174
tp1175
Rp1176
tp1177
a(S'cxxflags'
p1178
g2
(g3
g4
(lp1179
S'-fno-exceptions'
p1180
atp1181
Rp1182
tp1183
a(S'arduino_variants_dir'
p1184
S'/Applications/Arduino.app/Contents/Resources/Java/hardware/arduino/variants'
p1185
tp1186
a(S'serial'
p1187
S'/usr/local/bin/picocom'
p1188
tp1189
a(S'stty'
p1190
S'/bin/stty'
p1191
tp1192
a(S'version.txt'
p1193
S'/Applications/Arduino.app/Contents/Resources/Java/lib/version.txt'
p1194
tp1195
a(S'arduino_core_dir'
p1196
g1162
tp1197
a(S'boards.txt'
p1198
S'/Applications/Arduino.app/Contents/Resources/Java/hardware/arduino/boards.txt'
p1199
tp1200
a(S'avrdude.conf'
p1201
S'/Applications/Arduino.app/Contents/Resources/Java/hardware/tools/avr/etc/avrdude.conf'
p1202
tp1203
a(S'deps'
p1204
g2
(g3
g4
(lp1205
S'.build/uno/src/dependencies.d'
p1206
aS'.build/uno/arduino/dependencies.d'
p1207
aS'.build/uno/Wire/dependencies.d'
p1208
atp1209
Rp1210
tp1211
a.