(lp0
(S'cppflags'
p1
ccopy_reg
_reconstructor
p2
(cino.utils
SpaceList
p3
c__builtin__
list
p4
(lp5
S'-mmcu=atmega328p'
p6
aS'-DF_CPU=16000000L'
p7
aS'-DARDUINO=105'
p8
aS'-I/Applications/Arduino.app/Contents/Resources/Java/hardware/arduino/cores/arduino'
p9
aS'-ffunction-sections'
p10
aS'-fdata-sections'
p11
aS'-g'
p12
aS'-Os'
p13
aS'-w'
p14
aS'-I/Applications/Arduino.app/Contents/Resources/Java/hardware/arduino/variants/standard'
p15
atp16
Rp17
tp18
a(S'cxx'
p19
S'/Applications/Arduino.app/Contents/Resources/Java/hardware/tools/avr/bin/avr-g++'
<<<<<<< HEAD
p20
tp21
a(S'arduino_libraries_dir'
p22
S'/Applications/Arduino.app/Contents/Resources/Java/libraries'
p23
tp24
=======
p24
tp25
a(S'arduino_libraries_dir'
p26
S'/Applications/Arduino.app/Contents/Resources/Java/libraries'
p27
tp28
>>>>>>> 506bd212a8aae4fe0385ef7e2524d5a33d8ccd37
a(S'avrdude'
p25
S'/Applications/Arduino.app/Contents/Resources/Java/hardware/tools/avr/bin/avrdude'
p26
tp27
a(S'ar'
p28
S'/Applications/Arduino.app/Contents/Resources/Java/hardware/tools/avr/bin/avr-ar'
p29
tp30
a(S'names'
p31
(dp32
S'cpp'
p33
S'%s.cpp'
p34
sS'obj'
p35
S'%s.o'
p36
sS'deps'
p37
S'%s.d'
p38
sS'lib'
p39
S'lib%s.a'
p40
stp41
a(S'ldflags'
p42
g2
(g3
g4
(lp43
g6
aS'-Wl,-Os'
p44
aS'-Wl,--gc-sections'
p45
atp46
Rp47
tp48
a(S'arduino_lib_version'
p49
g2
(cino.environment
Version
p50
c__builtin__
tuple
p51
(I1
I0
I5
tp52
tp53
Rp54
tp55
a(S'objcopy'
p56
S'/Applications/Arduino.app/Contents/Resources/Java/hardware/tools/avr/bin/avr-objcopy'
p57
tp58
a(S'board_models'
p59
cino.environment
BoardModels
p60
((lp61
(lp62
S'uno'
p63
a(dp64
S'build'
p65
(dp66
S'core'
p67
<<<<<<< HEAD
S'arduino'
p68
sS'mcu'
p69
S'atmega328p'
p70
sS'f_cpu'
p71
S'16000000L'
p72
sS'variant'
p73
S'standard'
p74
ssS'bootloader'
p75
(dp76
S'extended_fuses'
p77
S'0x05'
p78
sS'high_fuses'
p79
S'0xde'
p80
sS'low_fuses'
p81
S'0xff'
p82
sS'lock_bits'
p83
S'0x0F'
p84
sS'file'
p85
S'optiboot_atmega328.hex'
p86
sS'path'
p87
S'optiboot'
p88
sS'unlock_bits'
p89
S'0x3F'
p90
ssS'upload'
p91
(dp92
S'protocol'
p93
S'arduino'
p94
sS'maximum_size'
p95
S'32256'
p96
sS'speed'
=======
a(dp68
S'build'
p69
(dp70
S'core'
p71
S'arduino'
p72
sS'mcu'
p73
S'atmega328p'
p74
sS'f_cpu'
p75
S'16000000L'
p76
sS'variant'
p77
S'standard'
p78
ssS'bootloader'
p79
(dp80
S'extended_fuses'
p81
S'0x05'
p82
sS'high_fuses'
p83
S'0xde'
p84
sS'low_fuses'
p85
S'0xff'
p86
sS'lock_bits'
p87
S'0x0F'
p88
sS'file'
p89
S'optiboot_atmega328.hex'
p90
sS'path'
p91
S'optiboot'
p92
sS'unlock_bits'
p93
S'0x3F'
p94
ssS'upload'
p95
(dp96
S'protocol'
>>>>>>> 506bd212a8aae4fe0385ef7e2524d5a33d8ccd37
p97
S'115200'
p98
<<<<<<< HEAD
ssS'name'
p99
S'Arduino Uno'
p100
saa(lp101
S'atmega328'
p102
a(dp103
S'build'
p104
(dp105
S'core'
p106
S'arduino'
p107
sS'mcu'
p108
S'atmega328p'
p109
sS'f_cpu'
p110
S'16000000L'
p111
sS'variant'
p112
S'standard'
p113
ssS'bootloader'
p114
(dp115
S'extended_fuses'
p116
S'0x05'
p117
sS'high_fuses'
p118
S'0xDA'
p119
sS'low_fuses'
p120
S'0xFF'
p121
sS'lock_bits'
p122
S'0x0F'
p123
sS'file'
p124
S'ATmegaBOOT_168_atmega328.hex'
p125
sS'path'
p126
S'atmega'
p127
sS'unlock_bits'
p128
S'0x3F'
p129
ssS'upload'
p130
(dp131
S'protocol'
p132
S'arduino'
p133
sS'maximum_size'
p134
S'30720'
p135
sS'speed'
=======
sS'maximum_size'
p99
S'32256'
p100
sS'speed'
p101
S'115200'
p102
ssS'name'
p103
S'Arduino Uno'
p104
saa(lp105
S'atmega328'
p106
a(dp107
S'build'
p108
(dp109
S'core'
p110
S'arduino'
p111
sS'mcu'
p112
S'atmega328p'
p113
sS'f_cpu'
p114
S'16000000L'
p115
sS'variant'
p116
S'standard'
p117
ssS'bootloader'
p118
(dp119
S'extended_fuses'
p120
S'0x05'
p121
sS'high_fuses'
p122
S'0xDA'
p123
sS'low_fuses'
p124
S'0xFF'
p125
sS'lock_bits'
p126
S'0x0F'
p127
sS'file'
p128
S'ATmegaBOOT_168_atmega328.hex'
p129
sS'path'
p130
S'atmega'
p131
sS'unlock_bits'
p132
S'0x3F'
p133
ssS'upload'
p134
(dp135
S'protocol'
>>>>>>> 506bd212a8aae4fe0385ef7e2524d5a33d8ccd37
p136
S'57600'
p137
<<<<<<< HEAD
ssS'name'
p138
S'Arduino Duemilanove w/ ATmega328'
p139
saa(lp140
S'diecimila'
p141
a(dp142
S'build'
p143
(dp144
S'core'
p145
S'arduino'
p146
sS'mcu'
p147
S'atmega168'
p148
sS'f_cpu'
p149
S'16000000L'
p150
sS'variant'
p151
S'standard'
p152
ssS'bootloader'
p153
(dp154
S'extended_fuses'
p155
S'0x00'
p156
sS'high_fuses'
p157
S'0xdd'
p158
sS'low_fuses'
p159
S'0xff'
p160
sS'lock_bits'
p161
S'0x0F'
p162
sS'file'
p163
S'ATmegaBOOT_168_diecimila.hex'
p164
sS'path'
p165
S'atmega'
p166
sS'unlock_bits'
p167
S'0x3F'
p168
ssS'upload'
p169
(dp170
S'protocol'
p171
S'arduino'
p172
sS'maximum_size'
p173
S'14336'
p174
sS'speed'
=======
sS'maximum_size'
p138
S'30720'
p139
sS'speed'
p140
S'57600'
p141
ssS'name'
p142
S'Arduino Duemilanove w/ ATmega328'
p143
saa(lp144
S'diecimila'
p145
a(dp146
S'build'
p147
(dp148
S'core'
p149
S'arduino'
p150
sS'mcu'
p151
S'atmega168'
p152
sS'f_cpu'
p153
S'16000000L'
p154
sS'variant'
p155
S'standard'
p156
ssS'bootloader'
p157
(dp158
S'extended_fuses'
p159
S'0x00'
p160
sS'high_fuses'
p161
S'0xdd'
p162
sS'low_fuses'
p163
S'0xff'
p164
sS'lock_bits'
p165
S'0x0F'
p166
sS'file'
p167
S'ATmegaBOOT_168_diecimila.hex'
p168
sS'path'
p169
S'atmega'
p170
sS'unlock_bits'
p171
S'0x3F'
p172
ssS'upload'
p173
(dp174
S'protocol'
>>>>>>> 506bd212a8aae4fe0385ef7e2524d5a33d8ccd37
p175
S'19200'
p176
<<<<<<< HEAD
ssS'name'
p177
S'Arduino Diecimila or Duemilanove w/ ATmega168'
p178
saa(lp179
S'nano328'
p180
a(dp181
S'build'
p182
(dp183
S'core'
p184
S'arduino'
p185
sS'mcu'
p186
S'atmega328p'
p187
sS'f_cpu'
p188
S'16000000L'
p189
sS'variant'
p190
S'eightanaloginputs'
p191
ssS'bootloader'
p192
(dp193
S'extended_fuses'
p194
S'0x05'
p195
sS'high_fuses'
p196
S'0xDA'
p197
sS'low_fuses'
p198
S'0xFF'
p199
sS'lock_bits'
p200
S'0x0F'
p201
sS'file'
p202
S'ATmegaBOOT_168_atmega328.hex'
p203
sS'path'
p204
S'atmega'
p205
sS'unlock_bits'
p206
S'0x3F'
p207
ssS'upload'
p208
(dp209
S'protocol'
p210
S'arduino'
p211
sS'maximum_size'
p212
S'30720'
p213
sS'speed'
=======
sS'maximum_size'
p177
S'14336'
p178
sS'speed'
p179
S'19200'
p180
ssS'name'
p181
S'Arduino Diecimila or Duemilanove w/ ATmega168'
p182
saa(lp183
S'nano328'
p184
a(dp185
S'build'
p186
(dp187
S'core'
p188
S'arduino'
p189
sS'mcu'
p190
S'atmega328p'
p191
sS'f_cpu'
p192
S'16000000L'
p193
sS'variant'
p194
S'eightanaloginputs'
p195
ssS'bootloader'
p196
(dp197
S'extended_fuses'
p198
S'0x05'
p199
sS'high_fuses'
p200
S'0xDA'
p201
sS'low_fuses'
p202
S'0xFF'
p203
sS'lock_bits'
p204
S'0x0F'
p205
sS'file'
p206
S'ATmegaBOOT_168_atmega328.hex'
p207
sS'path'
p208
S'atmega'
p209
sS'unlock_bits'
p210
S'0x3F'
p211
ssS'upload'
p212
(dp213
S'protocol'
>>>>>>> 506bd212a8aae4fe0385ef7e2524d5a33d8ccd37
p214
S'57600'
p215
<<<<<<< HEAD
ssS'name'
p216
S'Arduino Nano w/ ATmega328'
p217
saa(lp218
S'nano'
p219
a(dp220
S'build'
p221
(dp222
S'core'
p223
S'arduino'
p224
sS'mcu'
p225
S'atmega168'
p226
sS'f_cpu'
p227
S'16000000L'
p228
sS'variant'
p229
S'eightanaloginputs'
p230
ssS'bootloader'
p231
(dp232
S'extended_fuses'
p233
S'0x00'
p234
sS'high_fuses'
p235
S'0xdd'
p236
sS'low_fuses'
p237
S'0xff'
p238
sS'lock_bits'
p239
S'0x0F'
p240
sS'file'
p241
S'ATmegaBOOT_168_diecimila.hex'
p242
sS'path'
p243
S'atmega'
p244
sS'unlock_bits'
p245
S'0x3F'
p246
ssS'upload'
p247
(dp248
S'protocol'
p249
S'arduino'
p250
sS'maximum_size'
p251
S'14336'
p252
sS'speed'
=======
sS'maximum_size'
p216
S'30720'
p217
sS'speed'
p218
S'57600'
p219
ssS'name'
p220
S'Arduino Nano w/ ATmega328'
p221
saa(lp222
S'nano'
p223
a(dp224
S'build'
p225
(dp226
S'core'
p227
S'arduino'
p228
sS'mcu'
p229
S'atmega168'
p230
sS'f_cpu'
p231
S'16000000L'
p232
sS'variant'
p233
S'eightanaloginputs'
p234
ssS'bootloader'
p235
(dp236
S'extended_fuses'
p237
S'0x00'
p238
sS'high_fuses'
p239
S'0xdd'
p240
sS'low_fuses'
p241
S'0xff'
p242
sS'lock_bits'
p243
S'0x0F'
p244
sS'file'
p245
S'ATmegaBOOT_168_diecimila.hex'
p246
sS'path'
p247
S'atmega'
p248
sS'unlock_bits'
p249
S'0x3F'
p250
ssS'upload'
p251
(dp252
S'protocol'
>>>>>>> 506bd212a8aae4fe0385ef7e2524d5a33d8ccd37
p253
S'19200'
p254
<<<<<<< HEAD
ssS'name'
p255
S'Arduino Nano w/ ATmega168'
p256
saa(lp257
S'mega2560'
p258
a(dp259
S'build'
p260
(dp261
S'core'
p262
S'arduino'
p263
sS'mcu'
p264
S'atmega2560'
p265
sS'f_cpu'
p266
S'16000000L'
p267
sS'variant'
p268
S'mega'
p269
ssS'bootloader'
p270
(dp271
S'extended_fuses'
p272
S'0xFD'
p273
sS'high_fuses'
p274
S'0xD8'
p275
sS'low_fuses'
p276
S'0xFF'
p277
sS'lock_bits'
p278
S'0x0F'
p279
sS'file'
p280
S'stk500boot_v2_mega2560.hex'
p281
sS'path'
p282
S'stk500v2'
p283
sS'unlock_bits'
p284
S'0x3F'
p285
ssS'upload'
p286
(dp287
S'protocol'
p288
S'wiring'
p289
sS'maximum_size'
p290
S'258048'
p291
sS'speed'
p292
S'115200'
p293
ssS'name'
p294
S'Arduino Mega 2560 or Mega ADK'
p295
saa(lp296
S'mega'
p297
a(dp298
S'build'
p299
(dp300
S'core'
p301
S'arduino'
p302
sS'mcu'
p303
S'atmega1280'
p304
sS'f_cpu'
p305
S'16000000L'
p306
sS'variant'
p307
S'mega'
p308
ssS'bootloader'
p309
(dp310
S'extended_fuses'
p311
S'0xF5'
p312
sS'high_fuses'
p313
S'0xDA'
p314
sS'low_fuses'
p315
S'0xFF'
p316
sS'lock_bits'
p317
S'0x0F'
p318
sS'file'
p319
S'ATmegaBOOT_168_atmega1280.hex'
p320
sS'path'
p321
S'atmega'
p322
sS'unlock_bits'
p323
S'0x3F'
p324
ssS'upload'
p325
(dp326
S'protocol'
p327
S'arduino'
p328
sS'maximum_size'
p329
S'126976'
p330
sS'speed'
=======
sS'maximum_size'
p255
S'14336'
p256
sS'speed'
p257
S'19200'
p258
ssS'name'
p259
S'Arduino Nano w/ ATmega168'
p260
saa(lp261
S'mega2560'
p262
a(dp263
S'build'
p264
(dp265
S'core'
p266
S'arduino'
p267
sS'mcu'
p268
S'atmega2560'
p269
sS'f_cpu'
p270
S'16000000L'
p271
sS'variant'
p272
S'mega'
p273
ssS'bootloader'
p274
(dp275
S'extended_fuses'
p276
S'0xFD'
p277
sS'high_fuses'
p278
S'0xD8'
p279
sS'low_fuses'
p280
S'0xFF'
p281
sS'lock_bits'
p282
S'0x0F'
p283
sS'file'
p284
S'stk500boot_v2_mega2560.hex'
p285
sS'path'
p286
S'stk500v2'
p287
sS'unlock_bits'
p288
S'0x3F'
p289
ssS'upload'
p290
(dp291
S'protocol'
p292
S'wiring'
p293
sS'maximum_size'
p294
S'258048'
p295
sS'speed'
p296
S'115200'
p297
ssS'name'
p298
S'Arduino Mega 2560 or Mega ADK'
p299
saa(lp300
S'mega'
p301
a(dp302
S'build'
p303
(dp304
S'core'
p305
S'arduino'
p306
sS'mcu'
p307
S'atmega1280'
p308
sS'f_cpu'
p309
S'16000000L'
p310
sS'variant'
p311
S'mega'
p312
ssS'bootloader'
p313
(dp314
S'extended_fuses'
p315
S'0xF5'
p316
sS'high_fuses'
p317
S'0xDA'
p318
sS'low_fuses'
p319
S'0xFF'
p320
sS'lock_bits'
p321
S'0x0F'
p322
sS'file'
p323
S'ATmegaBOOT_168_atmega1280.hex'
p324
sS'path'
p325
S'atmega'
p326
sS'unlock_bits'
p327
S'0x3F'
p328
ssS'upload'
p329
(dp330
S'protocol'
>>>>>>> 506bd212a8aae4fe0385ef7e2524d5a33d8ccd37
p331
S'57600'
p332
<<<<<<< HEAD
ssS'name'
p333
S'Arduino Mega (ATmega1280)'
p334
saa(lp335
S'leonardo'
p336
a(dp337
S'build'
p338
(dp339
S'core'
p340
S'arduino'
p341
sS'f_cpu'
p342
S'16000000L'
p343
sS'vid'
p344
S'0x2341'
p345
sS'pid'
p346
S'0x8036'
p347
sS'variant'
p348
S'leonardo'
p349
sS'mcu'
p350
S'atmega32u4'
p351
ssS'bootloader'
p352
(dp353
S'extended_fuses'
p354
S'0xcb'
p355
sS'high_fuses'
p356
S'0xd8'
p357
sS'low_fuses'
p358
S'0xff'
p359
sS'lock_bits'
p360
S'0x2F'
p361
sS'file'
p362
S'Caterina-Leonardo.hex'
p363
sS'path'
p364
S'caterina'
p365
sS'unlock_bits'
p366
S'0x3F'
p367
ssS'upload'
p368
(dp369
S'protocol'
p370
S'avr109'
p371
sS'maximum_size'
p372
S'28672'
p373
sS'speed'
p374
S'57600'
p375
sS'disable_flushing'
p376
S'true'
p377
ssS'name'
p378
S'Arduino Leonardo'
p379
saa(lp380
S'esplora'
p381
a(dp382
S'build'
p383
(dp384
S'core'
p385
S'arduino'
p386
sS'f_cpu'
p387
S'16000000L'
p388
sS'vid'
p389
S'0x2341'
p390
sS'pid'
p391
S'0x803C'
p392
sS'variant'
p393
S'leonardo'
p394
sS'mcu'
p395
S'atmega32u4'
p396
ssS'bootloader'
p397
(dp398
S'extended_fuses'
p399
S'0xcb'
p400
sS'high_fuses'
p401
S'0xd8'
p402
sS'low_fuses'
p403
S'0xff'
p404
sS'lock_bits'
p405
S'0x2F'
p406
sS'file'
p407
S'Caterina-Esplora.hex'
p408
sS'path'
p409
S'caterina'
p410
sS'unlock_bits'
p411
S'0x3F'
p412
ssS'upload'
p413
(dp414
S'protocol'
p415
S'avr109'
p416
sS'maximum_size'
p417
S'28672'
p418
sS'speed'
p419
S'57600'
p420
sS'disable_flushing'
p421
S'true'
p422
ssS'name'
p423
S'Arduino Esplora'
p424
saa(lp425
S'micro'
p426
a(dp427
S'build'
p428
(dp429
S'core'
p430
S'arduino'
p431
sS'f_cpu'
p432
S'16000000L'
p433
sS'vid'
p434
S'0x2341'
p435
sS'pid'
p436
S'0x8037'
p437
sS'variant'
p438
S'micro'
p439
sS'mcu'
p440
S'atmega32u4'
p441
ssS'bootloader'
p442
(dp443
S'extended_fuses'
p444
S'0xcb'
p445
sS'high_fuses'
p446
S'0xd8'
p447
sS'low_fuses'
p448
S'0xff'
p449
sS'lock_bits'
p450
S'0x2F'
p451
sS'file'
p452
S'Caterina-Micro.hex'
p453
sS'path'
p454
S'caterina'
p455
sS'unlock_bits'
p456
S'0x3F'
p457
ssS'upload'
p458
(dp459
S'protocol'
p460
S'avr109'
p461
sS'maximum_size'
p462
S'28672'
p463
sS'speed'
p464
S'57600'
p465
sS'disable_flushing'
p466
S'true'
p467
ssS'name'
p468
S'Arduino Micro'
p469
saa(lp470
S'mini328'
p471
a(dp472
S'build'
p473
(dp474
S'core'
p475
S'arduino'
p476
sS'mcu'
p477
S'atmega328p'
p478
sS'f_cpu'
p479
S'16000000L'
p480
sS'variant'
p481
S'eightanaloginputs'
p482
ssS'bootloader'
p483
(dp484
S'extended_fuses'
p485
S'0x05'
p486
sS'high_fuses'
p487
S'0xd8'
p488
sS'low_fuses'
p489
S'0xff'
p490
sS'lock_bits'
p491
S'0x0F'
p492
sS'file'
p493
S'optiboot_atmega328-Mini.hex'
p494
sS'path'
p495
S'optiboot'
p496
sS'unlock_bits'
p497
S'0x3F'
p498
ssS'upload'
p499
(dp500
S'protocol'
p501
S'arduino'
p502
sS'maximum_size'
p503
S'28672'
p504
sS'speed'
=======
sS'maximum_size'
p333
S'126976'
p334
sS'speed'
p335
S'57600'
p336
ssS'name'
p337
S'Arduino Mega (ATmega1280)'
p338
saa(lp339
S'leonardo'
p340
a(dp341
S'build'
p342
(dp343
S'core'
p344
S'arduino'
p345
sS'f_cpu'
p346
S'16000000L'
p347
sS'vid'
p348
S'0x2341'
p349
sS'pid'
p350
S'0x8036'
p351
sS'variant'
p352
S'leonardo'
p353
sS'mcu'
p354
S'atmega32u4'
p355
ssS'bootloader'
p356
(dp357
S'extended_fuses'
p358
S'0xcb'
p359
sS'high_fuses'
p360
S'0xd8'
p361
sS'low_fuses'
p362
S'0xff'
p363
sS'lock_bits'
p364
S'0x2F'
p365
sS'file'
p366
S'Caterina-Leonardo.hex'
p367
sS'path'
p368
S'caterina'
p369
sS'unlock_bits'
p370
S'0x3F'
p371
ssS'upload'
p372
(dp373
S'protocol'
p374
S'avr109'
p375
sS'maximum_size'
p376
S'28672'
p377
sS'speed'
p378
S'57600'
p379
sS'disable_flushing'
p380
S'true'
p381
ssS'name'
p382
S'Arduino Leonardo'
p383
saa(lp384
S'esplora'
p385
a(dp386
S'build'
p387
(dp388
S'core'
p389
S'arduino'
p390
sS'f_cpu'
p391
S'16000000L'
p392
sS'vid'
p393
S'0x2341'
p394
sS'pid'
p395
S'0x803C'
p396
sS'variant'
p397
S'leonardo'
p398
sS'mcu'
p399
S'atmega32u4'
p400
ssS'bootloader'
p401
(dp402
S'extended_fuses'
p403
S'0xcb'
p404
sS'high_fuses'
p405
S'0xd8'
p406
sS'low_fuses'
p407
S'0xff'
p408
sS'lock_bits'
p409
S'0x2F'
p410
sS'file'
p411
S'Caterina-Esplora.hex'
p412
sS'path'
p413
S'caterina'
p414
sS'unlock_bits'
p415
S'0x3F'
p416
ssS'upload'
p417
(dp418
S'protocol'
p419
S'avr109'
p420
sS'maximum_size'
p421
S'28672'
p422
sS'speed'
p423
S'57600'
p424
sS'disable_flushing'
p425
S'true'
p426
ssS'name'
p427
S'Arduino Esplora'
p428
saa(lp429
S'micro'
p430
a(dp431
S'build'
p432
(dp433
S'core'
p434
S'arduino'
p435
sS'f_cpu'
p436
S'16000000L'
p437
sS'vid'
p438
S'0x2341'
p439
sS'pid'
p440
S'0x8037'
p441
sS'variant'
p442
S'micro'
p443
sS'mcu'
p444
S'atmega32u4'
p445
ssS'bootloader'
p446
(dp447
S'extended_fuses'
p448
S'0xcb'
p449
sS'high_fuses'
p450
S'0xd8'
p451
sS'low_fuses'
p452
S'0xff'
p453
sS'lock_bits'
p454
S'0x2F'
p455
sS'file'
p456
S'Caterina-Micro.hex'
p457
sS'path'
p458
S'caterina'
p459
sS'unlock_bits'
p460
S'0x3F'
p461
ssS'upload'
p462
(dp463
S'protocol'
p464
S'avr109'
p465
sS'maximum_size'
p466
S'28672'
p467
sS'speed'
p468
S'57600'
p469
sS'disable_flushing'
p470
S'true'
p471
ssS'name'
p472
S'Arduino Micro'
p473
saa(lp474
S'mini328'
p475
a(dp476
S'build'
p477
(dp478
S'core'
p479
S'arduino'
p480
sS'mcu'
p481
S'atmega328p'
p482
sS'f_cpu'
p483
S'16000000L'
p484
sS'variant'
p485
S'eightanaloginputs'
p486
ssS'bootloader'
p487
(dp488
S'extended_fuses'
p489
S'0x05'
p490
sS'high_fuses'
p491
S'0xd8'
p492
sS'low_fuses'
p493
S'0xff'
p494
sS'lock_bits'
p495
S'0x0F'
p496
sS'file'
p497
S'optiboot_atmega328-Mini.hex'
p498
sS'path'
p499
S'optiboot'
p500
sS'unlock_bits'
p501
S'0x3F'
p502
ssS'upload'
p503
(dp504
S'protocol'
>>>>>>> 506bd212a8aae4fe0385ef7e2524d5a33d8ccd37
p505
S'115200'
p506
<<<<<<< HEAD
ssS'name'
p507
S'Arduino Mini w/ ATmega328'
p508
saa(lp509
S'mini'
p510
a(dp511
S'build'
p512
(dp513
S'core'
p514
S'arduino'
p515
sS'mcu'
p516
S'atmega168'
p517
sS'f_cpu'
p518
S'16000000L'
p519
sS'variant'
p520
S'eightanaloginputs'
p521
ssS'bootloader'
p522
(dp523
S'extended_fuses'
p524
S'0x00'
p525
sS'high_fuses'
p526
S'0xdd'
p527
sS'low_fuses'
p528
S'0xff'
p529
sS'lock_bits'
p530
S'0x0F'
p531
sS'file'
p532
S'ATmegaBOOT_168_ng.hex'
p533
sS'path'
p534
S'atmega'
p535
sS'unlock_bits'
p536
S'0x3F'
p537
ssS'upload'
p538
(dp539
S'protocol'
p540
S'arduino'
p541
sS'maximum_size'
p542
S'14336'
p543
sS'speed'
=======
sS'maximum_size'
p507
S'28672'
p508
sS'speed'
p509
S'115200'
p510
ssS'name'
p511
S'Arduino Mini w/ ATmega328'
p512
saa(lp513
S'mini'
p514
a(dp515
S'build'
p516
(dp517
S'core'
p518
S'arduino'
p519
sS'mcu'
p520
S'atmega168'
p521
sS'f_cpu'
p522
S'16000000L'
p523
sS'variant'
p524
S'eightanaloginputs'
p525
ssS'bootloader'
p526
(dp527
S'extended_fuses'
p528
S'0x00'
p529
sS'high_fuses'
p530
S'0xdd'
p531
sS'low_fuses'
p532
S'0xff'
p533
sS'lock_bits'
p534
S'0x0F'
p535
sS'file'
p536
S'ATmegaBOOT_168_ng.hex'
p537
sS'path'
p538
S'atmega'
p539
sS'unlock_bits'
p540
S'0x3F'
p541
ssS'upload'
p542
(dp543
S'protocol'
>>>>>>> 506bd212a8aae4fe0385ef7e2524d5a33d8ccd37
p544
S'19200'
p545
<<<<<<< HEAD
ssS'name'
p546
S'Arduino Mini w/ ATmega168'
p547
saa(lp548
S'ethernet'
p549
a(dp550
S'build'
p551
(dp552
S'variant'
p553
S'standard'
p554
sS'mcu'
p555
S'atmega328p'
p556
sS'f_cpu'
p557
S'16000000L'
p558
sS'core'
p559
S'arduino'
p560
ssS'bootloader'
p561
(dp562
S'extended_fuses'
p563
S'0x05'
p564
sS'high_fuses'
p565
S'0xde'
p566
sS'low_fuses'
p567
S'0xff'
p568
sS'lock_bits'
p569
S'0x0F'
p570
sS'file'
p571
S'optiboot_atmega328.hex'
p572
sS'path'
p573
S'optiboot'
p574
sS'unlock_bits'
p575
S'0x3F'
p576
ssS'upload'
p577
(dp578
S'protocol'
p579
S'arduino'
p580
sS'maximum_size'
p581
S'32256'
p582
sS'speed'
p583
S'115200'
p584
ssS'name'
p585
S'Arduino Ethernet'
p586
saa(lp587
S'fio'
p588
a(dp589
S'build'
p590
(dp591
S'core'
p592
S'arduino'
p593
sS'mcu'
p594
S'atmega328p'
p595
sS'f_cpu'
p596
S'8000000L'
p597
sS'variant'
p598
S'eightanaloginputs'
p599
ssS'bootloader'
p600
(dp601
S'extended_fuses'
p602
S'0x05'
p603
sS'high_fuses'
p604
S'0xDA'
p605
sS'low_fuses'
p606
S'0xFF'
p607
sS'lock_bits'
p608
S'0x0F'
p609
sS'file'
p610
S'ATmegaBOOT_168_atmega328_pro_8MHz.hex'
p611
sS'path'
p612
S'arduino:atmega'
p613
sS'unlock_bits'
p614
S'0x3F'
p615
ssS'upload'
p616
(dp617
S'protocol'
p618
S'arduino'
p619
sS'maximum_size'
p620
S'30720'
p621
sS'speed'
=======
sS'maximum_size'
p546
S'14336'
p547
sS'speed'
p548
S'19200'
p549
ssS'name'
p550
S'Arduino Mini w/ ATmega168'
p551
saa(lp552
S'ethernet'
p553
a(dp554
S'build'
p555
(dp556
S'variant'
p557
S'standard'
p558
sS'mcu'
p559
S'atmega328p'
p560
sS'f_cpu'
p561
S'16000000L'
p562
sS'core'
p563
S'arduino'
p564
ssS'bootloader'
p565
(dp566
S'extended_fuses'
p567
S'0x05'
p568
sS'high_fuses'
p569
S'0xde'
p570
sS'low_fuses'
p571
S'0xff'
p572
sS'lock_bits'
p573
S'0x0F'
p574
sS'file'
p575
S'optiboot_atmega328.hex'
p576
sS'path'
p577
S'optiboot'
p578
sS'unlock_bits'
p579
S'0x3F'
p580
ssS'upload'
p581
(dp582
S'protocol'
p583
S'arduino'
p584
sS'maximum_size'
p585
S'32256'
p586
sS'speed'
p587
S'115200'
p588
ssS'name'
p589
S'Arduino Ethernet'
p590
saa(lp591
S'fio'
p592
a(dp593
S'build'
p594
(dp595
S'core'
p596
S'arduino'
p597
sS'mcu'
p598
S'atmega328p'
p599
sS'f_cpu'
p600
S'8000000L'
p601
sS'variant'
p602
S'eightanaloginputs'
p603
ssS'bootloader'
p604
(dp605
S'extended_fuses'
p606
S'0x05'
p607
sS'high_fuses'
p608
S'0xDA'
p609
sS'low_fuses'
p610
S'0xFF'
p611
sS'lock_bits'
p612
S'0x0F'
p613
sS'file'
p614
S'ATmegaBOOT_168_atmega328_pro_8MHz.hex'
p615
sS'path'
p616
S'arduino:atmega'
p617
sS'unlock_bits'
p618
S'0x3F'
p619
ssS'upload'
p620
(dp621
S'protocol'
>>>>>>> 506bd212a8aae4fe0385ef7e2524d5a33d8ccd37
p622
S'57600'
p623
<<<<<<< HEAD
ssS'name'
p624
S'Arduino Fio'
p625
saa(lp626
S'bt328'
p627
a(dp628
S'build'
p629
(dp630
S'core'
p631
S'arduino'
p632
sS'mcu'
p633
S'atmega328p'
p634
sS'f_cpu'
p635
S'16000000L'
p636
sS'variant'
p637
S'eightanaloginputs'
p638
ssS'bootloader'
p639
(dp640
S'extended_fuses'
p641
S'0x05'
p642
sS'high_fuses'
p643
S'0xd8'
p644
sS'low_fuses'
p645
S'0xff'
p646
sS'lock_bits'
p647
S'0x0F'
p648
sS'file'
p649
S'ATmegaBOOT_168_atmega328_bt.hex'
p650
sS'path'
p651
S'bt'
p652
sS'unlock_bits'
p653
S'0x3F'
p654
ssS'upload'
p655
(dp656
S'protocol'
p657
S'arduino'
p658
sS'maximum_size'
p659
S'28672'
p660
sS'speed'
p661
S'19200'
p662
sS'disable_flushing'
p663
S'true'
p664
ssS'name'
p665
S'Arduino BT w/ ATmega328'
p666
saa(lp667
S'bt'
p668
a(dp669
S'build'
p670
(dp671
S'core'
p672
S'arduino'
p673
sS'mcu'
p674
S'atmega168'
p675
sS'f_cpu'
p676
S'16000000L'
p677
sS'variant'
p678
S'eightanaloginputs'
p679
ssS'bootloader'
p680
(dp681
S'extended_fuses'
p682
S'0x00'
p683
sS'high_fuses'
p684
S'0xdd'
p685
sS'low_fuses'
p686
S'0xff'
p687
sS'lock_bits'
p688
S'0x0F'
p689
sS'file'
p690
S'ATmegaBOOT_168.hex'
p691
sS'path'
p692
S'bt'
p693
sS'unlock_bits'
p694
S'0x3F'
p695
ssS'upload'
p696
(dp697
S'protocol'
p698
S'arduino'
p699
sS'maximum_size'
p700
S'14336'
p701
sS'speed'
p702
S'19200'
p703
sS'disable_flushing'
p704
S'true'
p705
ssS'name'
p706
S'Arduino BT w/ ATmega168'
p707
saa(lp708
S'LilyPadUSB'
p709
a(dp710
S'build'
p711
(dp712
S'core'
p713
S'arduino'
p714
sS'f_cpu'
p715
S'8000000L'
p716
sS'vid'
p717
S'0x1B4F'
p718
sS'pid'
p719
S'0x9208'
p720
sS'variant'
p721
S'leonardo'
p722
sS'mcu'
p723
S'atmega32u4'
p724
ssS'bootloader'
p725
(dp726
S'extended_fuses'
p727
S'0xce'
p728
sS'high_fuses'
p729
S'0xd8'
p730
sS'low_fuses'
p731
S'0xff'
p732
sS'lock_bits'
p733
S'0x2F'
p734
sS'file'
p735
S'Caterina-LilyPadUSB.hex'
p736
sS'path'
p737
S'caterina-LilyPadUSB'
p738
sS'unlock_bits'
p739
S'0x3F'
p740
ssS'upload'
p741
(dp742
S'protocol'
p743
S'avr109'
p744
sS'maximum_size'
p745
S'28672'
p746
sS'speed'
p747
S'57600'
p748
sS'disable_flushing'
p749
S'true'
p750
ssS'name'
p751
S'LilyPad Arduino USB'
p752
saa(lp753
S'lilypad328'
p754
a(dp755
S'build'
p756
(dp757
S'core'
p758
S'arduino'
p759
sS'mcu'
p760
S'atmega328p'
p761
sS'f_cpu'
p762
S'8000000L'
p763
sS'variant'
p764
S'standard'
p765
ssS'bootloader'
p766
(dp767
S'extended_fuses'
p768
S'0x05'
p769
sS'high_fuses'
p770
S'0xDA'
p771
sS'low_fuses'
p772
S'0xFF'
p773
sS'lock_bits'
p774
S'0x0F'
p775
sS'file'
p776
S'ATmegaBOOT_168_atmega328_pro_8MHz.hex'
p777
sS'path'
p778
S'atmega'
p779
sS'unlock_bits'
p780
S'0x3F'
p781
ssS'upload'
p782
(dp783
S'protocol'
p784
S'arduino'
p785
sS'maximum_size'
p786
S'30720'
p787
sS'speed'
=======
sS'maximum_size'
p624
S'30720'
p625
sS'speed'
p626
S'57600'
p627
ssS'name'
p628
S'Arduino Fio'
p629
saa(lp630
S'bt328'
p631
a(dp632
S'build'
p633
(dp634
S'core'
p635
S'arduino'
p636
sS'mcu'
p637
S'atmega328p'
p638
sS'f_cpu'
p639
S'16000000L'
p640
sS'variant'
p641
S'eightanaloginputs'
p642
ssS'bootloader'
p643
(dp644
S'extended_fuses'
p645
S'0x05'
p646
sS'high_fuses'
p647
S'0xd8'
p648
sS'low_fuses'
p649
S'0xff'
p650
sS'lock_bits'
p651
S'0x0F'
p652
sS'file'
p653
S'ATmegaBOOT_168_atmega328_bt.hex'
p654
sS'path'
p655
S'bt'
p656
sS'unlock_bits'
p657
S'0x3F'
p658
ssS'upload'
p659
(dp660
S'protocol'
p661
S'arduino'
p662
sS'maximum_size'
p663
S'28672'
p664
sS'speed'
p665
S'19200'
p666
sS'disable_flushing'
p667
S'true'
p668
ssS'name'
p669
S'Arduino BT w/ ATmega328'
p670
saa(lp671
S'bt'
p672
a(dp673
S'build'
p674
(dp675
S'core'
p676
S'arduino'
p677
sS'mcu'
p678
S'atmega168'
p679
sS'f_cpu'
p680
S'16000000L'
p681
sS'variant'
p682
S'eightanaloginputs'
p683
ssS'bootloader'
p684
(dp685
S'extended_fuses'
p686
S'0x00'
p687
sS'high_fuses'
p688
S'0xdd'
p689
sS'low_fuses'
p690
S'0xff'
p691
sS'lock_bits'
p692
S'0x0F'
p693
sS'file'
p694
S'ATmegaBOOT_168.hex'
p695
sS'path'
p696
S'bt'
p697
sS'unlock_bits'
p698
S'0x3F'
p699
ssS'upload'
p700
(dp701
S'protocol'
p702
S'arduino'
p703
sS'maximum_size'
p704
S'14336'
p705
sS'speed'
p706
S'19200'
p707
sS'disable_flushing'
p708
S'true'
p709
ssS'name'
p710
S'Arduino BT w/ ATmega168'
p711
saa(lp712
S'LilyPadUSB'
p713
a(dp714
S'build'
p715
(dp716
S'core'
p717
S'arduino'
p718
sS'f_cpu'
p719
S'8000000L'
p720
sS'vid'
p721
S'0x1B4F'
p722
sS'pid'
p723
S'0x9208'
p724
sS'variant'
p725
S'leonardo'
p726
sS'mcu'
p727
S'atmega32u4'
p728
ssS'bootloader'
p729
(dp730
S'extended_fuses'
p731
S'0xce'
p732
sS'high_fuses'
p733
S'0xd8'
p734
sS'low_fuses'
p735
S'0xff'
p736
sS'lock_bits'
p737
S'0x2F'
p738
sS'file'
p739
S'Caterina-LilyPadUSB.hex'
p740
sS'path'
p741
S'caterina-LilyPadUSB'
p742
sS'unlock_bits'
p743
S'0x3F'
p744
ssS'upload'
p745
(dp746
S'protocol'
p747
S'avr109'
p748
sS'maximum_size'
p749
S'28672'
p750
sS'speed'
p751
S'57600'
p752
sS'disable_flushing'
p753
S'true'
p754
ssS'name'
p755
S'LilyPad Arduino USB'
p756
saa(lp757
S'lilypad328'
p758
a(dp759
S'build'
p760
(dp761
S'core'
p762
S'arduino'
p763
sS'mcu'
p764
S'atmega328p'
p765
sS'f_cpu'
p766
S'8000000L'
p767
sS'variant'
p768
S'standard'
p769
ssS'bootloader'
p770
(dp771
S'extended_fuses'
p772
S'0x05'
p773
sS'high_fuses'
p774
S'0xDA'
p775
sS'low_fuses'
p776
S'0xFF'
p777
sS'lock_bits'
p778
S'0x0F'
p779
sS'file'
p780
S'ATmegaBOOT_168_atmega328_pro_8MHz.hex'
p781
sS'path'
p782
S'atmega'
p783
sS'unlock_bits'
p784
S'0x3F'
p785
ssS'upload'
p786
(dp787
S'protocol'
>>>>>>> 506bd212a8aae4fe0385ef7e2524d5a33d8ccd37
p788
S'57600'
p789
<<<<<<< HEAD
ssS'name'
p790
S'LilyPad Arduino w/ ATmega328'
p791
saa(lp792
S'lilypad'
p793
a(dp794
S'build'
p795
(dp796
S'core'
p797
S'arduino'
p798
sS'mcu'
p799
S'atmega168'
p800
sS'f_cpu'
p801
S'8000000L'
p802
sS'variant'
p803
S'standard'
p804
ssS'bootloader'
p805
(dp806
S'extended_fuses'
p807
S'0x00'
p808
sS'high_fuses'
p809
S'0xdd'
p810
sS'low_fuses'
p811
S'0xe2'
p812
sS'lock_bits'
p813
S'0x0F'
p814
sS'file'
p815
S'LilyPadBOOT_168.hex'
p816
sS'path'
p817
S'lilypad'
p818
sS'unlock_bits'
p819
S'0x3F'
p820
ssS'upload'
p821
(dp822
S'protocol'
p823
S'arduino'
p824
sS'maximum_size'
p825
S'14336'
p826
sS'speed'
=======
sS'maximum_size'
p790
S'30720'
p791
sS'speed'
p792
S'57600'
p793
ssS'name'
p794
S'LilyPad Arduino w/ ATmega328'
p795
saa(lp796
S'lilypad'
p797
a(dp798
S'build'
p799
(dp800
S'core'
p801
S'arduino'
p802
sS'mcu'
p803
S'atmega168'
p804
sS'f_cpu'
p805
S'8000000L'
p806
sS'variant'
p807
S'standard'
p808
ssS'bootloader'
p809
(dp810
S'extended_fuses'
p811
S'0x00'
p812
sS'high_fuses'
p813
S'0xdd'
p814
sS'low_fuses'
p815
S'0xe2'
p816
sS'lock_bits'
p817
S'0x0F'
p818
sS'file'
p819
S'LilyPadBOOT_168.hex'
p820
sS'path'
p821
S'lilypad'
p822
sS'unlock_bits'
p823
S'0x3F'
p824
ssS'upload'
p825
(dp826
S'protocol'
>>>>>>> 506bd212a8aae4fe0385ef7e2524d5a33d8ccd37
p827
S'19200'
p828
<<<<<<< HEAD
ssS'name'
p829
S'LilyPad Arduino w/ ATmega168'
p830
saa(lp831
S'pro5v328'
p832
a(dp833
S'build'
p834
(dp835
S'core'
p836
S'arduino'
p837
sS'mcu'
p838
S'atmega328p'
p839
sS'f_cpu'
p840
S'16000000L'
p841
sS'variant'
p842
S'standard'
p843
ssS'bootloader'
p844
(dp845
S'extended_fuses'
p846
S'0x05'
p847
sS'high_fuses'
p848
S'0xDA'
p849
sS'low_fuses'
p850
S'0xFF'
p851
sS'lock_bits'
p852
S'0x0F'
p853
sS'file'
p854
S'ATmegaBOOT_168_atmega328.hex'
p855
sS'path'
p856
S'atmega'
p857
sS'unlock_bits'
p858
S'0x3F'
p859
ssS'upload'
p860
(dp861
S'protocol'
p862
S'arduino'
p863
sS'maximum_size'
p864
S'30720'
p865
sS'speed'
=======
sS'maximum_size'
p829
S'14336'
p830
sS'speed'
p831
S'19200'
p832
ssS'name'
p833
S'LilyPad Arduino w/ ATmega168'
p834
saa(lp835
S'pro5v328'
p836
a(dp837
S'build'
p838
(dp839
S'core'
p840
S'arduino'
p841
sS'mcu'
p842
S'atmega328p'
p843
sS'f_cpu'
p844
S'16000000L'
p845
sS'variant'
p846
S'standard'
p847
ssS'bootloader'
p848
(dp849
S'extended_fuses'
p850
S'0x05'
p851
sS'high_fuses'
p852
S'0xDA'
p853
sS'low_fuses'
p854
S'0xFF'
p855
sS'lock_bits'
p856
S'0x0F'
p857
sS'file'
p858
S'ATmegaBOOT_168_atmega328.hex'
p859
sS'path'
p860
S'atmega'
p861
sS'unlock_bits'
p862
S'0x3F'
p863
ssS'upload'
p864
(dp865
S'protocol'
>>>>>>> 506bd212a8aae4fe0385ef7e2524d5a33d8ccd37
p866
S'57600'
p867
<<<<<<< HEAD
ssS'name'
p868
S'Arduino Pro or Pro Mini (5V, 16 MHz) w/ ATmega328'
p869
saa(lp870
S'pro5v'
p871
a(dp872
S'build'
p873
(dp874
S'core'
p875
S'arduino'
p876
sS'mcu'
p877
S'atmega168'
p878
sS'f_cpu'
p879
S'16000000L'
p880
sS'variant'
p881
S'standard'
p882
ssS'bootloader'
p883
(dp884
S'extended_fuses'
p885
S'0x00'
p886
sS'high_fuses'
p887
S'0xdd'
p888
sS'low_fuses'
p889
S'0xff'
p890
sS'lock_bits'
p891
S'0x0F'
p892
sS'file'
p893
S'ATmegaBOOT_168_diecimila.hex'
p894
sS'path'
p895
S'atmega'
p896
sS'unlock_bits'
p897
S'0x3F'
p898
ssS'upload'
p899
(dp900
S'protocol'
p901
S'arduino'
p902
sS'maximum_size'
p903
S'14336'
p904
sS'speed'
=======
sS'maximum_size'
p868
S'30720'
p869
sS'speed'
p870
S'57600'
p871
ssS'name'
p872
S'Arduino Pro or Pro Mini (5V, 16 MHz) w/ ATmega328'
p873
saa(lp874
S'pro5v'
p875
a(dp876
S'build'
p877
(dp878
S'core'
p879
S'arduino'
p880
sS'mcu'
p881
S'atmega168'
p882
sS'f_cpu'
p883
S'16000000L'
p884
sS'variant'
p885
S'standard'
p886
ssS'bootloader'
p887
(dp888
S'extended_fuses'
p889
S'0x00'
p890
sS'high_fuses'
p891
S'0xdd'
p892
sS'low_fuses'
p893
S'0xff'
p894
sS'lock_bits'
p895
S'0x0F'
p896
sS'file'
p897
S'ATmegaBOOT_168_diecimila.hex'
p898
sS'path'
p899
S'atmega'
p900
sS'unlock_bits'
p901
S'0x3F'
p902
ssS'upload'
p903
(dp904
S'protocol'
>>>>>>> 506bd212a8aae4fe0385ef7e2524d5a33d8ccd37
p905
S'19200'
p906
<<<<<<< HEAD
ssS'name'
p907
S'Arduino Pro or Pro Mini (5V, 16 MHz) w/ ATmega168'
p908
saa(lp909
S'pro328'
p910
a(dp911
S'build'
p912
(dp913
S'core'
p914
S'arduino'
p915
sS'mcu'
p916
S'atmega328p'
p917
sS'f_cpu'
p918
S'8000000L'
p919
sS'variant'
p920
S'standard'
p921
ssS'bootloader'
p922
(dp923
S'extended_fuses'
p924
S'0x05'
p925
sS'high_fuses'
p926
S'0xDA'
p927
sS'low_fuses'
p928
S'0xFF'
p929
sS'lock_bits'
p930
S'0x0F'
p931
sS'file'
p932
S'ATmegaBOOT_168_atmega328_pro_8MHz.hex'
p933
sS'path'
p934
S'atmega'
p935
sS'unlock_bits'
p936
S'0x3F'
p937
ssS'upload'
p938
(dp939
S'protocol'
p940
S'arduino'
p941
sS'maximum_size'
p942
S'30720'
p943
sS'speed'
=======
sS'maximum_size'
p907
S'14336'
p908
sS'speed'
p909
S'19200'
p910
ssS'name'
p911
S'Arduino Pro or Pro Mini (5V, 16 MHz) w/ ATmega168'
p912
saa(lp913
S'pro328'
p914
a(dp915
S'build'
p916
(dp917
S'core'
p918
S'arduino'
p919
sS'mcu'
p920
S'atmega328p'
p921
sS'f_cpu'
p922
S'8000000L'
p923
sS'variant'
p924
S'standard'
p925
ssS'bootloader'
p926
(dp927
S'extended_fuses'
p928
S'0x05'
p929
sS'high_fuses'
p930
S'0xDA'
p931
sS'low_fuses'
p932
S'0xFF'
p933
sS'lock_bits'
p934
S'0x0F'
p935
sS'file'
p936
S'ATmegaBOOT_168_atmega328_pro_8MHz.hex'
p937
sS'path'
p938
S'atmega'
p939
sS'unlock_bits'
p940
S'0x3F'
p941
ssS'upload'
p942
(dp943
S'protocol'
>>>>>>> 506bd212a8aae4fe0385ef7e2524d5a33d8ccd37
p944
S'57600'
p945
<<<<<<< HEAD
ssS'name'
p946
S'Arduino Pro or Pro Mini (3.3V, 8 MHz) w/ ATmega328'
p947
saa(lp948
S'pro'
p949
a(dp950
S'build'
p951
(dp952
S'core'
p953
S'arduino'
p954
sS'mcu'
p955
S'atmega168'
p956
sS'f_cpu'
p957
S'8000000L'
p958
sS'variant'
p959
S'standard'
p960
ssS'bootloader'
p961
(dp962
S'extended_fuses'
p963
S'0x00'
p964
sS'high_fuses'
p965
S'0xdd'
p966
sS'low_fuses'
p967
S'0xc6'
p968
sS'lock_bits'
p969
S'0x0F'
p970
sS'file'
p971
S'ATmegaBOOT_168_pro_8MHz.hex'
p972
sS'path'
p973
S'atmega'
p974
sS'unlock_bits'
p975
S'0x3F'
p976
ssS'upload'
p977
(dp978
S'protocol'
p979
S'arduino'
p980
sS'maximum_size'
p981
S'14336'
p982
sS'speed'
=======
sS'maximum_size'
p946
S'30720'
p947
sS'speed'
p948
S'57600'
p949
ssS'name'
p950
S'Arduino Pro or Pro Mini (3.3V, 8 MHz) w/ ATmega328'
p951
saa(lp952
S'pro'
p953
a(dp954
S'build'
p955
(dp956
S'core'
p957
S'arduino'
p958
sS'mcu'
p959
S'atmega168'
p960
sS'f_cpu'
p961
S'8000000L'
p962
sS'variant'
p963
S'standard'
p964
ssS'bootloader'
p965
(dp966
S'extended_fuses'
p967
S'0x00'
p968
sS'high_fuses'
p969
S'0xdd'
p970
sS'low_fuses'
p971
S'0xc6'
p972
sS'lock_bits'
p973
S'0x0F'
p974
sS'file'
p975
S'ATmegaBOOT_168_pro_8MHz.hex'
p976
sS'path'
p977
S'atmega'
p978
sS'unlock_bits'
p979
S'0x3F'
p980
ssS'upload'
p981
(dp982
S'protocol'
>>>>>>> 506bd212a8aae4fe0385ef7e2524d5a33d8ccd37
p983
S'19200'
p984
<<<<<<< HEAD
ssS'name'
p985
S'Arduino Pro or Pro Mini (3.3V, 8 MHz) w/ ATmega168'
p986
saa(lp987
S'atmega168'
p988
a(dp989
S'build'
p990
(dp991
S'core'
p992
S'arduino'
p993
sS'mcu'
p994
S'atmega168'
p995
sS'f_cpu'
p996
S'16000000L'
p997
sS'variant'
p998
S'standard'
p999
ssS'bootloader'
p1000
(dp1001
S'extended_fuses'
p1002
S'0x00'
p1003
sS'high_fuses'
p1004
S'0xdd'
p1005
sS'low_fuses'
p1006
S'0xff'
p1007
sS'lock_bits'
p1008
S'0x0F'
p1009
sS'file'
p1010
S'ATmegaBOOT_168_ng.hex'
p1011
sS'path'
p1012
S'atmega'
p1013
sS'unlock_bits'
p1014
S'0x3F'
p1015
ssS'upload'
p1016
(dp1017
S'protocol'
p1018
S'arduino'
p1019
sS'maximum_size'
p1020
S'14336'
p1021
sS'speed'
=======
sS'maximum_size'
p985
S'14336'
p986
sS'speed'
p987
S'19200'
p988
ssS'name'
p989
S'Arduino Pro or Pro Mini (3.3V, 8 MHz) w/ ATmega168'
p990
saa(lp991
S'atmega168'
p992
a(dp993
S'build'
p994
(dp995
S'core'
p996
S'arduino'
p997
sS'mcu'
p998
S'atmega168'
p999
sS'f_cpu'
p1000
S'16000000L'
p1001
sS'variant'
p1002
S'standard'
p1003
ssS'bootloader'
p1004
(dp1005
S'extended_fuses'
p1006
S'0x00'
p1007
sS'high_fuses'
p1008
S'0xdd'
p1009
sS'low_fuses'
p1010
S'0xff'
p1011
sS'lock_bits'
p1012
S'0x0F'
p1013
sS'file'
p1014
S'ATmegaBOOT_168_ng.hex'
p1015
sS'path'
p1016
S'atmega'
p1017
sS'unlock_bits'
p1018
S'0x3F'
p1019
ssS'upload'
p1020
(dp1021
S'protocol'
>>>>>>> 506bd212a8aae4fe0385ef7e2524d5a33d8ccd37
p1022
S'19200'
p1023
<<<<<<< HEAD
ssS'name'
p1024
S'Arduino NG or older w/ ATmega168'
p1025
saa(lp1026
S'atmega8'
p1027
a(dp1028
S'build'
p1029
(dp1030
S'core'
p1031
S'arduino'
p1032
sS'mcu'
p1033
S'atmega8'
p1034
sS'f_cpu'
p1035
S'16000000L'
p1036
sS'variant'
p1037
S'standard'
p1038
ssS'bootloader'
p1039
(dp1040
S'high_fuses'
p1041
S'0xca'
p1042
sS'low_fuses'
p1043
S'0xdf'
p1044
sS'lock_bits'
p1045
S'0x0F'
p1046
sS'file'
p1047
S'ATmegaBOOT-prod-firmware-2009-11-07.hex'
p1048
sS'path'
p1049
S'atmega8'
p1050
sS'unlock_bits'
p1051
S'0x3F'
p1052
ssS'upload'
p1053
(dp1054
S'protocol'
p1055
S'arduino'
p1056
sS'maximum_size'
p1057
S'7168'
p1058
sS'speed'
=======
sS'maximum_size'
p1024
S'14336'
p1025
sS'speed'
p1026
S'19200'
p1027
ssS'name'
p1028
S'Arduino NG or older w/ ATmega168'
p1029
saa(lp1030
S'atmega8'
p1031
a(dp1032
S'build'
p1033
(dp1034
S'core'
p1035
S'arduino'
p1036
sS'mcu'
p1037
S'atmega8'
p1038
sS'f_cpu'
p1039
S'16000000L'
p1040
sS'variant'
p1041
S'standard'
p1042
ssS'bootloader'
p1043
(dp1044
S'high_fuses'
p1045
S'0xca'
p1046
sS'low_fuses'
p1047
S'0xdf'
p1048
sS'lock_bits'
p1049
S'0x0F'
p1050
sS'file'
p1051
S'ATmegaBOOT-prod-firmware-2009-11-07.hex'
p1052
sS'path'
p1053
S'atmega8'
p1054
sS'unlock_bits'
p1055
S'0x3F'
p1056
ssS'upload'
p1057
(dp1058
S'protocol'
>>>>>>> 506bd212a8aae4fe0385ef7e2524d5a33d8ccd37
p1059
S'19200'
p1060
<<<<<<< HEAD
ssS'name'
p1061
S'Arduino NG or older w/ ATmega8'
p1062
saa(lp1063
S'robotControl'
p1064
a(dp1065
S'build'
p1066
(dp1067
S'core'
p1068
S'robot'
p1069
sS'f_cpu'
p1070
S'16000000L'
p1071
sS'vid'
p1072
S'0x2341'
p1073
sS'pid'
p1074
S'0x8038'
p1075
sS'variant'
p1076
S'robot_control'
p1077
sS'mcu'
p1078
S'atmega32u4'
p1079
ssS'bootloader'
p1080
(dp1081
S'extended_fuses'
p1082
S'0xcb'
p1083
sS'high_fuses'
p1084
S'0xd8'
p1085
sS'low_fuses'
p1086
S'0xff'
p1087
sS'lock_bits'
p1088
S'0x2F'
p1089
sS'file'
p1090
S'Caterina-Robot-Control.hex'
p1091
sS'path'
p1092
S'caterina-Arduino_Robot'
p1093
sS'unlock_bits'
p1094
S'0x3F'
p1095
ssS'upload'
p1096
(dp1097
S'protocol'
p1098
S'avr109'
p1099
sS'maximum_size'
p1100
S'28672'
p1101
sS'speed'
p1102
S'57600'
p1103
sS'disable_flushing'
p1104
S'true'
p1105
ssS'name'
p1106
S'Arduino Robot Control'
p1107
saa(lp1108
S'robotMotor'
p1109
a(dp1110
S'build'
p1111
(dp1112
S'core'
p1113
S'robot'
p1114
sS'f_cpu'
p1115
S'16000000L'
p1116
sS'vid'
p1117
S'0x2341'
p1118
sS'pid'
p1119
S'0x8039'
p1120
sS'variant'
p1121
S'robot_motor'
p1122
sS'mcu'
p1123
S'atmega32u4'
p1124
ssS'bootloader'
p1125
(dp1126
S'extended_fuses'
p1127
S'0xcb'
p1128
sS'high_fuses'
p1129
S'0xd8'
p1130
sS'low_fuses'
p1131
S'0xff'
p1132
sS'lock_bits'
p1133
S'0x2F'
p1134
sS'file'
p1135
S'Caterina-Robot-Motor.hex'
p1136
sS'path'
p1137
S'caterina-Arduino_Robot'
p1138
sS'unlock_bits'
p1139
S'0x3F'
p1140
ssS'upload'
p1141
(dp1142
S'protocol'
p1143
S'avr109'
p1144
sS'maximum_size'
p1145
S'28672'
p1146
sS'speed'
p1147
S'57600'
p1148
sS'disable_flushing'
p1149
S'true'
p1150
ssS'name'
p1151
S'Arduino Robot Motor'
p1152
saatp1153
Rp1154
(dp1155
=======
sS'maximum_size'
p1061
S'7168'
p1062
sS'speed'
p1063
S'19200'
p1064
ssS'name'
p1065
S'Arduino NG or older w/ ATmega8'
p1066
saa(lp1067
S'robotControl'
p1068
a(dp1069
S'build'
p1070
(dp1071
S'core'
p1072
S'robot'
p1073
sS'f_cpu'
p1074
S'16000000L'
p1075
sS'vid'
p1076
S'0x2341'
p1077
sS'pid'
p1078
S'0x8038'
p1079
sS'variant'
p1080
S'robot_control'
p1081
sS'mcu'
p1082
S'atmega32u4'
p1083
ssS'bootloader'
p1084
(dp1085
S'extended_fuses'
p1086
S'0xcb'
p1087
sS'high_fuses'
p1088
S'0xd8'
p1089
sS'low_fuses'
p1090
S'0xff'
p1091
sS'lock_bits'
p1092
S'0x2F'
p1093
sS'file'
p1094
S'Caterina-Robot-Control.hex'
p1095
sS'path'
p1096
S'caterina-Arduino_Robot'
p1097
sS'unlock_bits'
p1098
S'0x3F'
p1099
ssS'upload'
p1100
(dp1101
S'protocol'
p1102
S'avr109'
p1103
sS'maximum_size'
p1104
S'28672'
p1105
sS'speed'
p1106
S'57600'
p1107
sS'disable_flushing'
p1108
S'true'
p1109
ssS'name'
p1110
S'Arduino Robot Control'
p1111
saa(lp1112
S'robotMotor'
p1113
a(dp1114
S'build'
p1115
(dp1116
S'core'
p1117
S'robot'
p1118
sS'f_cpu'
p1119
S'16000000L'
p1120
sS'vid'
p1121
S'0x2341'
p1122
sS'pid'
p1123
S'0x8039'
p1124
sS'variant'
p1125
S'robot_motor'
p1126
sS'mcu'
p1127
S'atmega32u4'
p1128
ssS'bootloader'
p1129
(dp1130
S'extended_fuses'
p1131
S'0xcb'
p1132
sS'high_fuses'
p1133
S'0xd8'
p1134
sS'low_fuses'
p1135
S'0xff'
p1136
sS'lock_bits'
p1137
S'0x2F'
p1138
sS'file'
p1139
S'Caterina-Robot-Motor.hex'
p1140
sS'path'
p1141
S'caterina-Arduino_Robot'
p1142
sS'unlock_bits'
p1143
S'0x3F'
p1144
ssS'upload'
p1145
(dp1146
S'protocol'
p1147
S'avr109'
p1148
sS'maximum_size'
p1149
S'28672'
p1150
sS'speed'
p1151
S'57600'
p1152
sS'disable_flushing'
p1153
S'true'
p1154
ssS'name'
p1155
S'Arduino Robot Motor'
p1156
saatp1157
Rp1158
(dp1159
>>>>>>> 506bd212a8aae4fe0385ef7e2524d5a33d8ccd37
S'default'
p1156
S'uno'
p1157
sbtp1158
a(S'used_libs'
p1159
(lp1160
S'/Applications/Arduino.app/Contents/Resources/Java/libraries/Wire'
p1161
aS'/Applications/Arduino.app/Contents/Resources/Java/hardware/arduino/cores/arduino'
p1162
atp1163
a(S'make'
p1164
S'/Applications/Arduino.app/Contents/Resources/Java/hardware/tools/avr/bin/make'
<<<<<<< HEAD
p1165
tp1166
a(S'build_dir'
p1167
S'.build/uno'
p1168
tp1169
=======
p1169
tp1170
a(S'build_dir'
p1171
S'.build/uno'
p1172
tp1173
>>>>>>> 506bd212a8aae4fe0385ef7e2524d5a33d8ccd37
a(S'cc'
p1170
S'/Applications/Arduino.app/Contents/Resources/Java/hardware/tools/avr/bin/avr-gcc'
p1171
tp1172
a(S'cflags'
p1173
g2
(g3
g4
(lp1174
tp1175
Rp1176
tp1177
a(S'cxxflags'
p1178
g2
(g3
g4
(lp1179
S'-fno-exceptions'
p1180
atp1181
Rp1182
tp1183
a(S'arduino_variants_dir'
p1184
S'/Applications/Arduino.app/Contents/Resources/Java/hardware/arduino/variants'
p1185
tp1186
a(S'serial'
p1187
S'/usr/local/bin/picocom'
p1188
tp1189
a(S'stty'
p1190
S'/bin/stty'
p1191
tp1192
a(S'version.txt'
p1193
S'/Applications/Arduino.app/Contents/Resources/Java/lib/version.txt'
p1194
tp1195
a(S'arduino_core_dir'
p1196
g1162
tp1197
a(S'boards.txt'
p1198
S'/Applications/Arduino.app/Contents/Resources/Java/hardware/arduino/boards.txt'
p1199
tp1200
a(S'avrdude.conf'
p1201
S'/Applications/Arduino.app/Contents/Resources/Java/hardware/tools/avr/etc/avrdude.conf'
<<<<<<< HEAD
p1202
tp1203
a(S'deps'
p1204
g2
(g3
g4
(lp1205
S'.build/uno/src/dependencies.d'
p1206
aS'.build/uno/arduino/dependencies.d'
p1207
aS'.build/uno/Wire/dependencies.d'
p1208
atp1209
Rp1210
tp1211
=======
p1206
tp1207
a(S'deps'
p1208
g2
(g3
g4
(lp1209
S'.build/uno/src/dependencies.d'
p1210
aS'.build/uno/arduino/dependencies.d'
p1211
aS'.build/uno/Wire/dependencies.d'
p1212
atp1213
Rp1214
tp1215
>>>>>>> 506bd212a8aae4fe0385ef7e2524d5a33d8ccd37
a.